; Function Attrs: mustprogress uwtable
define hidden void @_ZN4lean2ir7mk_caseERKNS_4nameERKNS_3natERKNS_6bufferINS_10object_refELm16EEE(ptr dead_on_unwind noalias writable writeonly sret(%"class.lean::object_ref") align 8 captures(none) %0, ptr noundef nonnull readonly align 8 captures(none) dereferenceable(8) %1, ptr noundef nonnull readonly align 8 captures(none) dereferenceable(8) %2, ptr noundef nonnull readonly align 8 captures(none) dereferenceable(152) %3) local_unnamed_addr #0 {
  %5 = load ptr, ptr %1, align 8, !tbaa !3
  %6 = ptrtoint ptr %5 to i64
  %7 = and i64 %6, 1
  %.not.i.i = icmp eq i64 %7, 0
  br i1 %.not.i.i, label %8, label %_ZNK4lean10object_ref10to_obj_argEv.exit

8:                                                ; preds = %4
  %.val.i.i.i = load i32, ptr %5, align 4, !tbaa !8
  %9 = icmp sgt i32 %.val.i.i.i, 0
  br i1 %9, label %10, label %12, !prof !11

10:                                               ; preds = %8
  %11 = add nuw nsw i32 %.val.i.i.i, 1
  store i32 %11, ptr %5, align 4, !tbaa !8
  br label %_ZNK4lean10object_ref10to_obj_argEv.exit

12:                                               ; preds = %8
  %.not.i.i.i = icmp eq i32 %.val.i.i.i, 0
  br i1 %.not.i.i.i, label %_ZNK4lean10object_ref10to_obj_argEv.exit, label %13

13:                                               ; preds = %12
  tail call void @lean_inc_ref_cold(ptr noundef nonnull %5)
  %.pre.i = load ptr, ptr %1, align 8, !tbaa !3
  br label %_ZNK4lean10object_ref10to_obj_argEv.exit

_ZNK4lean10object_ref10to_obj_argEv.exit:         ; preds = %4, %10, %12, %13
  %14 = phi ptr [ %5, %4 ], [ %5, %10 ], [ %5, %12 ], [ %.pre.i, %13 ]
  %15 = load ptr, ptr %2, align 8, !tbaa !3
  %16 = ptrtoint ptr %15 to i64
  %17 = and i64 %16, 1
  %.not.i.i3 = icmp eq i64 %17, 0
  br i1 %.not.i.i3, label %18, label %_ZNK4lean10object_ref10to_obj_argEv.exit7

18:                                               ; preds = %_ZNK4lean10object_ref10to_obj_argEv.exit
  %.val.i.i.i4 = load i32, ptr %15, align 4, !tbaa !8
  %19 = icmp sgt i32 %.val.i.i.i4, 0
  br i1 %19, label %20, label %22, !prof !11

20:                                               ; preds = %18
  %21 = add nuw nsw i32 %.val.i.i.i4, 1
  store i32 %21, ptr %15, align 4, !tbaa !8
  br label %_ZNK4lean10object_ref10to_obj_argEv.exit7

22:                                               ; preds = %18
  %.not.i.i.i5 = icmp eq i32 %.val.i.i.i4, 0
  br i1 %.not.i.i.i5, label %_ZNK4lean10object_ref10to_obj_argEv.exit7, label %23

23:                                               ; preds = %22
  tail call void @lean_inc_ref_cold(ptr noundef nonnull %15)
  %.pre.i6 = load ptr, ptr %2, align 8, !tbaa !3
  br label %_ZNK4lean10object_ref10to_obj_argEv.exit7

_ZNK4lean10object_ref10to_obj_argEv.exit7:        ; preds = %_ZNK4lean10object_ref10to_obj_argEv.exit, %20, %22, %23
  %24 = phi ptr [ %15, %_ZNK4lean10object_ref10to_obj_argEv.exit ], [ %15, %20 ], [ %15, %22 ], [ %.pre.i6, %23 ]
  %25 = getelementptr inbounds nuw i8, ptr %3, i64 8
  %26 = load i64, ptr %25, align 8, !tbaa !13
  %27 = shl i64 %26, 3
  %28 = add i64 %27, 24
  %29 = tail call ptr @lean_alloc_object(i64 noundef %28)
  store i32 1, ptr %29, align 4, !tbaa !8
  %30 = getelementptr inbounds nuw i8, ptr %29, i64 4
  %31 = load i32, ptr %30, align 4
  %32 = and i32 %31, 65535
  %33 = or disjoint i32 %32, -167772160
  store i32 %33, ptr %30, align 4
  %34 = getelementptr inbounds nuw i8, ptr %29, i64 8
  store i64 %26, ptr %34, align 8, !tbaa !17
  %35 = getelementptr inbounds nuw i8, ptr %29, i64 16
  store i64 %26, ptr %35, align 8, !tbaa !17
  %36 = load ptr, ptr %3, align 8, !tbaa !18
  %37 = load i64, ptr %25, align 8, !tbaa !13
  %38 = getelementptr inbounds nuw %"class.lean::object_ref", ptr %36, i64 %37
  %.not15.i = icmp eq i64 %37, 0
  br i1 %.not15.i, label %_ZN4lean8to_arrayINS_6bufferINS_10object_refELm16EEEEEP11lean_objectRKT_.exit, label %.lr.ph.i

.lr.ph.i:                                         ; preds = %_ZNK4lean10object_ref10to_obj_argEv.exit7
  %39 = getelementptr inbounds nuw i8, ptr %29, i64 24
  br label %40

40:                                               ; preds = %_ZN4lean3incEP11lean_object.exit.i, %.lr.ph.i
  %.017.i = phi i64 [ 0, %.lr.ph.i ], [ %52, %_ZN4lean3incEP11lean_object.exit.i ]
  %.01416.i = phi ptr [ %36, %.lr.ph.i ], [ %53, %_ZN4lean3incEP11lean_object.exit.i ]
  %41 = load ptr, ptr %.01416.i, align 8, !tbaa !3
  %42 = ptrtoint ptr %41 to i64
  %43 = and i64 %42, 1
  %.not.i.i8 = icmp eq i64 %43, 0
  br i1 %.not.i.i8, label %44, label %_ZN4lean3incEP11lean_object.exit.i

44:                                               ; preds = %40
  %.val.i.i.i9 = load i32, ptr %41, align 4, !tbaa !8
  %45 = icmp sgt i32 %.val.i.i.i9, 0
  br i1 %45, label %46, label %48, !prof !11

46:                                               ; preds = %44
  %47 = add nuw nsw i32 %.val.i.i.i9, 1
  store i32 %47, ptr %41, align 4, !tbaa !8
  br label %_ZN4lean3incEP11lean_object.exit.i

48:                                               ; preds = %44
  %.not.i.i.i10 = icmp eq i32 %.val.i.i.i9, 0
  br i1 %.not.i.i.i10, label %_ZN4lean3incEP11lean_object.exit.i, label %49

49:                                               ; preds = %48
  tail call void @lean_inc_ref_cold(ptr noundef nonnull %41)
  %.pre.i11 = load ptr, ptr %.01416.i, align 8, !tbaa !3
  br label %_ZN4lean3incEP11lean_object.exit.i

_ZN4lean3incEP11lean_object.exit.i:               ; preds = %49, %48, %46, %40
  %50 = phi ptr [ %41, %40 ], [ %41, %46 ], [ %41, %48 ], [ %.pre.i11, %49 ]
  %51 = getelementptr inbounds nuw [0 x ptr], ptr %39, i64 0, i64 %.017.i
  store ptr %50, ptr %51, align 8, !tbaa !12
  %52 = add nuw nsw i64 %.017.i, 1
  %53 = getelementptr inbounds nuw i8, ptr %.01416.i, i64 8
  %.not.i = icmp eq ptr %53, %38
  br i1 %.not.i, label %_ZN4lean8to_arrayINS_6bufferINS_10object_refELm16EEEEEP11lean_objectRKT_.exit, label %40

_ZN4lean8to_arrayINS_6bufferINS_10object_refELm16EEEEEP11lean_objectRKT_.exit: ; preds = %_ZN4lean3incEP11lean_object.exit.i, %_ZNK4lean10object_ref10to_obj_argEv.exit7
  %54 = tail call ptr @lean_ir_mk_case(ptr noundef %14, ptr noundef %24, ptr noundef nonnull %29)
  store ptr %54, ptr %0, align 8, !tbaa !3
  ret void
}